target datalayout = "e-m:e-p270:32:32-p271:32:32-p272:64:64-i64:64-i128:128-f80:128-n8:16:32:64-S128"
target triple = "x86_64-pc-linux-gnu"

; Function Attrs: inlinehint nounwind uwtable
define internal i32 @Abc_TtGetBit(ptr noundef %0, i32 noundef %1) #2 {
  %3 = alloca ptr, align 8
  %4 = alloca i32, align 4
  store ptr %0, ptr %3, align 8, !tbaa !7
  store i32 %1, ptr %4, align 4, !tbaa !3
  %5 = load ptr, ptr %3, align 8, !tbaa !7
  %6 = load i32, ptr %4, align 4, !tbaa !3
  %7 = ashr i32 %6, 6
  %8 = sext i32 %7 to i64
  %9 = getelementptr inbounds i64, ptr %5, i64 %8
  %10 = load i64, ptr %9, align 8, !tbaa !14
  %11 = load i32, ptr %4, align 4, !tbaa !3
  %12 = and i32 %11, 63
  %13 = zext i32 %12 to i64
  %14 = lshr i64 %10, %13
  %15 = trunc i64 %14 to i32
  %16 = and i32 %15, 1
  ret i32 %16
}

; Function Attrs: inlinehint nounwind uwtable
define internal void @Abc_TtSetBit(ptr noundef %0, i32 noundef %1) #2 {
  %3 = alloca ptr, align 8
  %4 = alloca i32, align 4
  store ptr %0, ptr %3, align 8, !tbaa !7
  store i32 %1, ptr %4, align 4, !tbaa !3
  %5 = load i32, ptr %4, align 4, !tbaa !3
  %6 = and i32 %5, 63
  %7 = zext i32 %6 to i64
  %8 = shl i64 1, %7
  %9 = load ptr, ptr %3, align 8, !tbaa !7
  %10 = load i32, ptr %4, align 4, !tbaa !3
  %11 = ashr i32 %10, 6
  %12 = sext i32 %11 to i64
  %13 = getelementptr inbounds i64, ptr %9, i64 %12
  %14 = load i64, ptr %13, align 8, !tbaa !14
  %15 = or i64 %14, %8
  store i64 %15, ptr %13, align 8, !tbaa !14
  ret void
}

; Function Attrs: inlinehint nounwind uwtable
define internal i32 @Rsb_DecTryCex(ptr noundef %0, i32 noundef %1, i32 noundef %2) #2 {
  %4 = alloca ptr, align 8
  %5 = alloca i32, align 4
  %6 = alloca i32, align 4
  store ptr %0, ptr %4, align 8, !tbaa !7
  store i32 %1, ptr %5, align 4, !tbaa !3
  store i32 %2, ptr %6, align 4, !tbaa !3
  %7 = load ptr, ptr %4, align 8, !tbaa !7
  %8 = load i32, ptr %5, align 4, !tbaa !3
  %9 = call i32 @Abc_TtGetBit(ptr noundef %7, i32 noundef %8)
  %10 = load ptr, ptr %4, align 8, !tbaa !7
  %11 = load i32, ptr %6, align 4, !tbaa !3
  %12 = call i32 @Abc_TtGetBit(ptr noundef %10, i32 noundef %11)
  %13 = icmp eq i32 %9, %12
  %14 = zext i1 %13 to i32
  ret i32 %14
}

; Function Attrs: inlinehint nounwind uwtable
define internal void @Rsb_DecRecordCex(ptr noundef %0, i32 noundef %1, i32 noundef %2, i32 noundef %3, ptr noundef %4, i32 noundef %5) #2 {
  %7 = alloca ptr, align 8
  %8 = alloca i32, align 4
  %9 = alloca i32, align 4
  %10 = alloca i32, align 4
  %11 = alloca ptr, align 8
  %12 = alloca i32, align 4
  %13 = alloca i32, align 4
  store ptr %0, ptr %7, align 8, !tbaa !10
  store i32 %1, ptr %8, align 4, !tbaa !3
  store i32 %2, ptr %9, align 4, !tbaa !3
  store i32 %3, ptr %10, align 4, !tbaa !3
  store ptr %4, ptr %11, align 8, !tbaa !7
  store i32 %5, ptr %12, align 4, !tbaa !3
  call void @llvm.lifetime.start.p0(i64 4, ptr %13) #8
  store i32 0, ptr %13, align 4, !tbaa !3
  br label %14

14:                                               ; preds = %35, %6
  %15 = load i32, ptr %13, align 4, !tbaa !3
  %16 = load i32, ptr %8, align 4, !tbaa !3
  %17 = icmp slt i32 %15, %16
  br i1 %17, label %18, label %38

18:                                               ; preds = %14
  %19 = load ptr, ptr %7, align 8, !tbaa !10
  %20 = load i32, ptr %13, align 4, !tbaa !3
  %21 = sext i32 %20 to i64
  %22 = getelementptr inbounds ptr, ptr %19, i64 %21
  %23 = load ptr, ptr %22, align 8, !tbaa !7
  %24 = load i32, ptr %9, align 4, !tbaa !3
  %25 = load i32, ptr %10, align 4, !tbaa !3
  %26 = call i32 @Rsb_DecTryCex(ptr noundef %23, i32 noundef %24, i32 noundef %25)
  %27 = icmp ne i32 %26, 0
  br i1 %27, label %28, label %34

28:                                               ; preds = %18
  %29 = load ptr, ptr %11, align 8, !tbaa !7
  %30 = load i32, ptr %13, align 4, !tbaa !3
  %31 = sext i32 %30 to i64
  %32 = getelementptr inbounds i64, ptr %29, i64 %31
  %33 = load i32, ptr %12, align 4, !tbaa !3
  call void @Abc_TtSetBit(ptr noundef %32, i32 noundef %33)
  br label %34

34:                                               ; preds = %28, %18
  br label %35

35:                                               ; preds = %34
  %36 = load i32, ptr %13, align 4, !tbaa !3
  %37 = add nsw i32 %36, 1
  store i32 %37, ptr %13, align 4, !tbaa !3
  br label %14, !llvm.loop !47

38:                                               ; preds = %14
  call void @llvm.lifetime.end.p0(i64 4, ptr %13) #8
  ret void
}