; Function Attrs: inlinehint nofree norecurse nosync nounwind memory(read, argmem: readwrite, inaccessiblemem: none) uwtable
define internal fastcc void @Rsb_DecRecordCex(ptr noundef readonly captures(none) %0, i32 noundef %1, i32 noundef %2, i32 noundef %3, ptr noundef captures(none) %4, i32 noundef range(i32 65, 64) %5) unnamed_addr #5 {
  %7 = icmp sgt i32 %1, 0
  br i1 %7, label %.lr.ph, label %._crit_edge

.lr.ph:                                           ; preds = %6
  %8 = ashr i32 %2, 6
  %9 = sext i32 %8 to i64
  %10 = and i32 %2, 63
  %11 = zext nneg i32 %10 to i64
  %12 = ashr i32 %3, 6
  %13 = sext i32 %12 to i64
  %14 = and i32 %3, 63
  %15 = zext nneg i32 %14 to i64
  %16 = and i32 %5, 63
  %17 = zext nneg i32 %16 to i64
  %18 = shl nuw i64 1, %17
  %19 = ashr i32 %5, 6
  %20 = sext i32 %19 to i64
  %invariant.gep = getelementptr i64, ptr %4, i64 %20
  %wide.trip.count = zext nneg i32 %1 to i64
  br label %21

21:                                               ; preds = %.lr.ph, %35
  %indvars.iv = phi i64 [ 0, %.lr.ph ], [ %indvars.iv.next, %35 ]
  %22 = getelementptr inbounds nuw ptr, ptr %0, i64 %indvars.iv
  %23 = load ptr, ptr %22, align 8, !tbaa !7
  %24 = getelementptr inbounds i64, ptr %23, i64 %9
  %25 = load i64, ptr %24, align 8, !tbaa !10
  %26 = lshr i64 %25, %11
  %27 = getelementptr inbounds i64, ptr %23, i64 %13
  %28 = load i64, ptr %27, align 8, !tbaa !10
  %29 = lshr i64 %28, %15
  %30 = xor i64 %29, %26
  %31 = and i64 %30, 1
  %.not.not = icmp eq i64 %31, 0
  br i1 %.not.not, label %32, label %35

32:                                               ; preds = %21
  %gep = getelementptr i64, ptr %invariant.gep, i64 %indvars.iv
  %33 = load i64, ptr %gep, align 8, !tbaa !10
  %34 = or i64 %33, %18
  store i64 %34, ptr %gep, align 8, !tbaa !10
  br label %35

35:                                               ; preds = %21, %32
  %indvars.iv.next = add nuw nsw i64 %indvars.iv, 1
  %exitcond.not = icmp eq i64 %indvars.iv.next, %wide.trip.count
  br i1 %exitcond.not, label %._crit_edge, label %21, !llvm.loop !41

._crit_edge:                                      ; preds = %35, %6
  ret void
}